; ModuleID = '5/994.c'
source_filename = "5/994.c"
target datalayout = "e-m:e-p270:32:32-p271:32:32-p272:64:64-i64:64-f80:128-n8:16:32:64-S128"
target triple = "x86_64-pc-linux-gnu"

@.str = private unnamed_addr constant [10 x i8] c"%lf %s %s\00", align 1
@.str.1 = private unnamed_addr constant [6 x i8] c"error\00", align 1
@.str.2 = private unnamed_addr constant [4 x i8] c"yes\00", align 1
@.str.3 = private unnamed_addr constant [3 x i8] c"no\00", align 1

; Function Attrs: noinline nounwind uwtable
define dso_local i32 @main() #0 {
  %1 = alloca i32, align 4
  %2 = alloca i32, align 4
  %3 = alloca i32, align 4
  %4 = alloca i32, align 4
  %5 = alloca double, align 8
  %6 = alloca double, align 8
  %7 = alloca [101 x i8], align 16
  %8 = alloca [101 x i8], align 16
  %9 = alloca i32, align 4
  %10 = alloca i32, align 4
  store i32 0, i32* %1, align 4
  store i32 0, i32* %4, align 4
  %11 = getelementptr inbounds [101 x i8], [101 x i8]* %7, i64 0, i64 0
  %12 = getelementptr inbounds [101 x i8], [101 x i8]* %8, i64 0, i64 0
  %13 = call i32 (i8*, ...) @__isoc99_scanf(i8* getelementptr inbounds ([10 x i8], [10 x i8]* @.str, i64 0, i64 0), double* %5, i8* %11, i8* %12)
  %14 = getelementptr inbounds [101 x i8], [101 x i8]* %7, i64 0, i64 0
  %15 = call i64 @strlen(i8* %14) #3
  %16 = trunc i64 %15 to i32
  store i32 %16, i32* %2, align 4
  %17 = getelementptr inbounds [101 x i8], [101 x i8]* %8, i64 0, i64 0
  %18 = call i64 @strlen(i8* %17) #3
  %19 = trunc i64 %18 to i32
  store i32 %19, i32* %3, align 4
  %20 = load i32, i32* %2, align 4
  %21 = load i32, i32* %3, align 4
  %22 = icmp ne i32 %20, %21
  br i1 %22, label %23, label %25

23:                                               ; preds = %0
  %24 = call i32 (i8*, ...) @printf(i8* getelementptr inbounds ([6 x i8], [6 x i8]* @.str.1, i64 0, i64 0))
  store i32 0, i32* %1, align 4
  br label %132

25:                                               ; preds = %0
  store i32 0, i32* %9, align 4
  br label %26

26:                                               ; preds = %89, %25
  %27 = load i32, i32* %9, align 4
  %28 = load i32, i32* %2, align 4
  %29 = icmp slt i32 %27, %28
  br i1 %29, label %30, label %92

30:                                               ; preds = %26
  %31 = load i32, i32* %9, align 4
  %32 = sext i32 %31 to i64
  %33 = getelementptr inbounds [101 x i8], [101 x i8]* %7, i64 0, i64 %32
  %34 = load i8, i8* %33, align 1
  %35 = sext i8 %34 to i32
  %36 = icmp ne i32 %35, 65
  br i1 %36, label %37, label %58

37:                                               ; preds = %30
  %38 = load i32, i32* %9, align 4
  %39 = sext i32 %38 to i64
  %40 = getelementptr inbounds [101 x i8], [101 x i8]* %7, i64 0, i64 %39
  %41 = load i8, i8* %40, align 1
  %42 = sext i8 %41 to i32
  %43 = icmp ne i32 %42, 71
  br i1 %43, label %44, label %58

44:                                               ; preds = %37
  %45 = load i32, i32* %9, align 4
  %46 = sext i32 %45 to i64
  %47 = getelementptr inbounds [101 x i8], [101 x i8]* %7, i64 0, i64 %46
  %48 = load i8, i8* %47, align 1
  %49 = sext i8 %48 to i32
  %50 = icmp ne i32 %49, 67
  br i1 %50, label %51, label %58

51:                                               ; preds = %44
  %52 = load i32, i32* %9, align 4
  %53 = sext i32 %52 to i64
  %54 = getelementptr inbounds [101 x i8], [101 x i8]* %7, i64 0, i64 %53
  %55 = load i8, i8* %54, align 1
  %56 = sext i8 %55 to i32
  %57 = icmp ne i32 %56, 84
  br i1 %57, label %86, label %58

58:                                               ; preds = %51, %44, %37, %30
  %59 = load i32, i32* %9, align 4
  %60 = sext i32 %59 to i64
  %61 = getelementptr inbounds [101 x i8], [101 x i8]* %8, i64 0, i64 %60
  %62 = load i8, i8* %61, align 1
  %63 = sext i8 %62 to i32
  %64 = icmp ne i32 %63, 65
  br i1 %64, label %65, label %88

65:                                               ; preds = %58
  %66 = load i32, i32* %9, align 4
  %67 = sext i32 %66 to i64
  %68 = getelementptr inbounds [101 x i8], [101 x i8]* %8, i64 0, i64 %67
  %69 = load i8, i8* %68, align 1
  %70 = sext i8 %69 to i32
  %71 = icmp ne i32 %70, 71
  br i1 %71, label %72, label %88

72:                                               ; preds = %65
  %73 = load i32, i32* %9, align 4
  %74 = sext i32 %73 to i64
  %75 = getelementptr inbounds [101 x i8], [101 x i8]* %8, i64 0, i64 %74
  %76 = load i8, i8* %75, align 1
  %77 = sext i8 %76 to i32
  %78 = icmp ne i32 %77, 67
  br i1 %78, label %79, label %88

79:                                               ; preds = %72
  %80 = load i32, i32* %9, align 4
  %81 = sext i32 %80 to i64
  %82 = getelementptr inbounds [101 x i8], [101 x i8]* %8, i64 0, i64 %81
  %83 = load i8, i8* %82, align 1
  %84 = sext i8 %83 to i32
  %85 = icmp ne i32 %84, 84
  br i1 %85, label %86, label %88

86:                                               ; preds = %79, %51
  %87 = call i32 (i8*, ...) @printf(i8* getelementptr inbounds ([6 x i8], [6 x i8]* @.str.1, i64 0, i64 0))
  store i32 0, i32* %1, align 4
  br label %132

88:                                               ; preds = %79, %72, %65, %58
  br label %89

89:                                               ; preds = %88
  %90 = load i32, i32* %9, align 4
  %91 = add nsw i32 %90, 1
  store i32 %91, i32* %9, align 4
  br label %26

92:                                               ; preds = %26
  store i32 0, i32* %10, align 4
  br label %93

93:                                               ; preds = %113, %92
  %94 = load i32, i32* %10, align 4
  %95 = load i32, i32* %2, align 4
  %96 = icmp slt i32 %94, %95
  br i1 %96, label %97, label %116

97:                                               ; preds = %93
  %98 = load i32, i32* %10, align 4
  %99 = sext i32 %98 to i64
  %100 = getelementptr inbounds [101 x i8], [101 x i8]* %7, i64 0, i64 %99
  %101 = load i8, i8* %100, align 1
  %102 = sext i8 %101 to i32
  %103 = load i32, i32* %10, align 4
  %104 = sext i32 %103 to i64
  %105 = getelementptr inbounds [101 x i8], [101 x i8]* %8, i64 0, i64 %104
  %106 = load i8, i8* %105, align 1
  %107 = sext i8 %106 to i32
  %108 = icmp eq i32 %102, %107
  br i1 %108, label %109, label %112

109:                                              ; preds = %97
  %110 = load i32, i32* %4, align 4
  %111 = add nsw i32 %110, 1
  store i32 %111, i32* %4, align 4
  br label %112

112:                                              ; preds = %109, %97
  br label %113

113:                                              ; preds = %112
  %114 = load i32, i32* %10, align 4
  %115 = add nsw i32 %114, 1
  store i32 %115, i32* %10, align 4
  br label %93

116:                                              ; preds = %93
  %117 = load i32, i32* %4, align 4
  %118 = sitofp i32 %117 to double
  %119 = fmul double 1.000000e+00, %118
  %120 = load i32, i32* %2, align 4
  %121 = sitofp i32 %120 to double
  %122 = fdiv double %119, %121
  store double %122, double* %6, align 8
  %123 = load double, double* %6, align 8
  %124 = load double, double* %5, align 8
  %125 = fcmp ogt double %123, %124
  br i1 %125, label %126, label %128

126:                                              ; preds = %116
  %127 = call i32 (i8*, ...) @printf(i8* getelementptr inbounds ([4 x i8], [4 x i8]* @.str.2, i64 0, i64 0))
  br label %130

128:                                              ; preds = %116
  %129 = call i32 (i8*, ...) @printf(i8* getelementptr inbounds ([3 x i8], [3 x i8]* @.str.3, i64 0, i64 0))
  br label %130

130:                                              ; preds = %128, %126
  br label %131

131:                                              ; preds = %130
  store i32 0, i32* %1, align 4
  br label %132

132:                                              ; preds = %131, %86, %23
  %133 = load i32, i32* %1, align 4
  ret i32 %133
}

declare dso_local i32 @__isoc99_scanf(i8*, ...) #1

; Function Attrs: nounwind readonly
declare dso_local i64 @strlen(i8*) #2

declare dso_local i32 @printf(i8*, ...) #1


!llvm.module.flags = !{!0}
!llvm.ident = !{!1}

!0 = !{i32 1, !"wchar_size", i32 4}
!1 = !{!"clang version 10.0.0-4ubuntu1 "}
